; Function Attrs: mustprogress nounwind uwtable
define void @_ZN5Ipopt12ScaledMatrixD2Ev(ptr noundef nonnull align 8 dereferenceable(96) %0) unnamed_addr #1 align 2 personality ptr @__gxx_personality_v0 {
  store ptr getelementptr inbounds ({ [14 x ptr], [4 x ptr] }, ptr @_ZTVN5Ipopt12ScaledMatrixE, i64 0, i32 0, i64 2), ptr %0, align 8
  %2 = getelementptr inbounds i8, ptr %0, i64 16
  store ptr getelementptr inbounds ({ [14 x ptr], [4 x ptr] }, ptr @_ZTVN5Ipopt12ScaledMatrixE, i64 0, i32 1, i64 2), ptr %2, align 8
  %3 = getelementptr inbounds i8, ptr %0, i64 88
  %4 = load ptr, ptr %3, align 8
  %.not.i.i = icmp eq ptr %4, null
  br i1 %.not.i.i, label %_ZN5Ipopt8SmartPtrIKNS_17ScaledMatrixSpaceEED2Ev.exit, label %5

5:                                                ; preds = %1
  %6 = getelementptr inbounds i8, ptr %4, i64 8
  %7 = load i32, ptr %6, align 8
  %8 = add nsw i32 %7, -1
  store i32 %8, ptr %6, align 8
  %9 = load ptr, ptr %3, align 8
  %10 = getelementptr inbounds i8, ptr %9, i64 8
  %11 = load i32, ptr %10, align 8
  %12 = icmp eq i32 %11, 0
  br i1 %12, label %13, label %_ZN5Ipopt8SmartPtrIKNS_17ScaledMatrixSpaceEED2Ev.exit

13:                                               ; preds = %5
  %14 = load ptr, ptr %9, align 8
  %15 = getelementptr inbounds i8, ptr %14, i64 8
  %16 = load ptr, ptr %15, align 8
  tail call void %16(ptr noundef nonnull align 8 dereferenceable(48) %9) #11
  br label %_ZN5Ipopt8SmartPtrIKNS_17ScaledMatrixSpaceEED2Ev.exit

_ZN5Ipopt8SmartPtrIKNS_17ScaledMatrixSpaceEED2Ev.exit: ; preds = %1, %5, %13
  %17 = getelementptr inbounds i8, ptr %0, i64 80
  %18 = load ptr, ptr %17, align 8
  %.not.i.i1 = icmp eq ptr %18, null
  br i1 %.not.i.i1, label %_ZN5Ipopt8SmartPtrINS_6MatrixEED2Ev.exit, label %19

19:                                               ; preds = %_ZN5Ipopt8SmartPtrIKNS_17ScaledMatrixSpaceEED2Ev.exit
  %20 = getelementptr inbounds i8, ptr %18, i64 8
  %21 = load i32, ptr %20, align 8
  %22 = add nsw i32 %21, -1
  store i32 %22, ptr %20, align 8
  %23 = load ptr, ptr %17, align 8
  %24 = getelementptr inbounds i8, ptr %23, i64 8
  %25 = load i32, ptr %24, align 8
  %26 = icmp eq i32 %25, 0
  br i1 %26, label %27, label %_ZN5Ipopt8SmartPtrINS_6MatrixEED2Ev.exit

27:                                               ; preds = %19
  %28 = load ptr, ptr %23, align 8
  %29 = getelementptr inbounds i8, ptr %28, i64 8
  %30 = load ptr, ptr %29, align 8
  tail call void %30(ptr noundef nonnull align 8 dereferenceable(69) %23) #11
  br label %_ZN5Ipopt8SmartPtrINS_6MatrixEED2Ev.exit

_ZN5Ipopt8SmartPtrINS_6MatrixEED2Ev.exit:         ; preds = %_ZN5Ipopt8SmartPtrIKNS_17ScaledMatrixSpaceEED2Ev.exit, %19, %27
  %31 = getelementptr inbounds i8, ptr %0, i64 72
  %32 = load ptr, ptr %31, align 8
  %.not.i.i2 = icmp eq ptr %32, null
  br i1 %.not.i.i2, label %_ZN5Ipopt8SmartPtrIKNS_6MatrixEED2Ev.exit, label %33

33:                                               ; preds = %_ZN5Ipopt8SmartPtrINS_6MatrixEED2Ev.exit
  %34 = getelementptr inbounds i8, ptr %32, i64 8
  %35 = load i32, ptr %34, align 8
  %36 = add nsw i32 %35, -1
  store i32 %36, ptr %34, align 8
  %37 = load ptr, ptr %31, align 8
  %38 = getelementptr inbounds i8, ptr %37, i64 8
  %39 = load i32, ptr %38, align 8
  %40 = icmp eq i32 %39, 0
  br i1 %40, label %41, label %_ZN5Ipopt8SmartPtrIKNS_6MatrixEED2Ev.exit

41:                                               ; preds = %33
  %42 = load ptr, ptr %37, align 8
  %43 = getelementptr inbounds i8, ptr %42, i64 8
  %44 = load ptr, ptr %43, align 8
  tail call void %44(ptr noundef nonnull align 8 dereferenceable(69) %37) #11
  br label %_ZN5Ipopt8SmartPtrIKNS_6MatrixEED2Ev.exit

_ZN5Ipopt8SmartPtrIKNS_6MatrixEED2Ev.exit:        ; preds = %_ZN5Ipopt8SmartPtrINS_6MatrixEED2Ev.exit, %33, %41
  store ptr getelementptr inbounds ({ [14 x ptr], [4 x ptr] }, ptr @_ZTVN5Ipopt6MatrixE, i64 0, i32 0, i64 2), ptr %0, align 8
  store ptr getelementptr inbounds ({ [14 x ptr], [4 x ptr] }, ptr @_ZTVN5Ipopt6MatrixE, i64 0, i32 1, i64 2), ptr %2, align 8
  %45 = getelementptr inbounds i8, ptr %0, i64 56
  %46 = load ptr, ptr %45, align 8
  %.not.i.i.i = icmp eq ptr %46, null
  br i1 %.not.i.i.i, label %_ZN5Ipopt6MatrixD2Ev.exit, label %47

47:                                               ; preds = %_ZN5Ipopt8SmartPtrIKNS_6MatrixEED2Ev.exit
  %48 = getelementptr inbounds i8, ptr %46, i64 8
  %49 = load i32, ptr %48, align 8
  %50 = add nsw i32 %49, -1
  store i32 %50, ptr %48, align 8
  %51 = load ptr, ptr %45, align 8
  %52 = getelementptr inbounds i8, ptr %51, i64 8
  %53 = load i32, ptr %52, align 8
  %54 = icmp eq i32 %53, 0
  br i1 %54, label %55, label %_ZN5Ipopt6MatrixD2Ev.exit

55:                                               ; preds = %47
  %56 = load ptr, ptr %51, align 8
  %57 = getelementptr inbounds i8, ptr %56, i64 8
  %58 = load ptr, ptr %57, align 8
  tail call void %58(ptr noundef nonnull align 8 dereferenceable(20) %51) #11
  br label %_ZN5Ipopt6MatrixD2Ev.exit

_ZN5Ipopt6MatrixD2Ev.exit:                        ; preds = %_ZN5Ipopt8SmartPtrIKNS_6MatrixEED2Ev.exit, %47, %55
  tail call void @_ZN5Ipopt7SubjectD2Ev(ptr noundef nonnull align 8 dereferenceable(32) %2) #11
  store ptr getelementptr inbounds ({ [4 x ptr] }, ptr @_ZTVN5Ipopt16ReferencedObjectE, i64 0, i32 0, i64 2), ptr %0, align 8
  ret void
}